target datalayout = "e-m:e-p270:32:32-p271:32:32-p272:64:64-i64:64-i128:128-f80:128-n8:16:32:64-S128"
target triple = "x86_64-pc-linux-gnu"

%struct.decNumber = type { i32, i32, i8, [1 x i16] }

; Function Attrs: nounwind uwtable
define dso_local ptr @decNumberGetBCD(ptr noundef %0, ptr noundef %1) #0 {
  %3 = alloca ptr, align 8
  %4 = alloca ptr, align 8
  %5 = alloca ptr, align 8
  %6 = alloca ptr, align 8
  %7 = alloca i32, align 4
  %8 = alloca i32, align 4
  store ptr %0, ptr %3, align 8, !tbaa !4
  store ptr %1, ptr %4, align 8, !tbaa !23
  call void @llvm.lifetime.start.p0(i64 8, ptr %5) #7
  %9 = load ptr, ptr %4, align 8, !tbaa !23
  %10 = load ptr, ptr %3, align 8, !tbaa !4
  %11 = getelementptr inbounds nuw %struct.decNumber, ptr %10, i32 0, i32 0
  %12 = load i32, ptr %11, align 4, !tbaa !18
  %13 = sext i32 %12 to i64
  %14 = getelementptr inbounds i8, ptr %9, i64 %13
  %15 = getelementptr inbounds i8, ptr %14, i64 -1
  store ptr %15, ptr %5, align 8, !tbaa !23
  call void @llvm.lifetime.start.p0(i64 8, ptr %6) #7
  %16 = load ptr, ptr %3, align 8, !tbaa !4
  %17 = getelementptr inbounds nuw %struct.decNumber, ptr %16, i32 0, i32 3
  %18 = getelementptr inbounds [1 x i16], ptr %17, i64 0, i64 0
  store ptr %18, ptr %6, align 8, !tbaa !12
  call void @llvm.lifetime.start.p0(i64 4, ptr %7) #7
  %19 = load ptr, ptr %6, align 8, !tbaa !12
  %20 = load i16, ptr %19, align 2, !tbaa !14
  %21 = zext i16 %20 to i32
  store i32 %21, ptr %7, align 4, !tbaa !8
  call void @llvm.lifetime.start.p0(i64 4, ptr %8) #7
  store i32 3, ptr %8, align 4, !tbaa !8
  br label %22

22:                                               ; preds = %44, %2
  %23 = load ptr, ptr %5, align 8, !tbaa !23
  %24 = load ptr, ptr %4, align 8, !tbaa !23
  %25 = icmp uge ptr %23, %24
  br i1 %25, label %26, label %47

26:                                               ; preds = %22
  %27 = load i32, ptr %7, align 4, !tbaa !8
  %28 = urem i32 %27, 10
  %29 = trunc i32 %28 to i8
  %30 = load ptr, ptr %5, align 8, !tbaa !23
  store i8 %29, ptr %30, align 1, !tbaa !25
  %31 = load i32, ptr %7, align 4, !tbaa !8
  %32 = udiv i32 %31, 10
  store i32 %32, ptr %7, align 4, !tbaa !8
  %33 = load i32, ptr %8, align 4, !tbaa !8
  %34 = add i32 %33, -1
  store i32 %34, ptr %8, align 4, !tbaa !8
  %35 = load i32, ptr %8, align 4, !tbaa !8
  %36 = icmp ugt i32 %35, 0
  br i1 %36, label %37, label %38

37:                                               ; preds = %26
  br label %44

38:                                               ; preds = %26
  %39 = load ptr, ptr %6, align 8, !tbaa !12
  %40 = getelementptr inbounds nuw i16, ptr %39, i32 1
  store ptr %40, ptr %6, align 8, !tbaa !12
  %41 = load ptr, ptr %6, align 8, !tbaa !12
  %42 = load i16, ptr %41, align 2, !tbaa !14
  %43 = zext i16 %42 to i32
  store i32 %43, ptr %7, align 4, !tbaa !8
  store i32 3, ptr %8, align 4, !tbaa !8
  br label %44

44:                                               ; preds = %38, %37
  %45 = load ptr, ptr %5, align 8, !tbaa !23
  %46 = getelementptr inbounds i8, ptr %45, i32 -1
  store ptr %46, ptr %5, align 8, !tbaa !23
  br label %22, !llvm.loop !92

47:                                               ; preds = %22
  %48 = load ptr, ptr %4, align 8, !tbaa !23
  call void @llvm.lifetime.end.p0(i64 4, ptr %8) #7
  call void @llvm.lifetime.end.p0(i64 4, ptr %7) #7
  call void @llvm.lifetime.end.p0(i64 8, ptr %6) #7
  call void @llvm.lifetime.end.p0(i64 8, ptr %5) #7
  ret ptr %48
}