; Function Attrs: nofree norecurse nosync nounwind memory(argmem: readwrite) uwtable
define dso_local noundef ptr @decNumberGetBCD(ptr noundef readonly captures(none) %0, ptr noundef returned writeonly captures(address, ret: address, provenance) %1) local_unnamed_addr #0 {
  %3 = load i32, ptr %0, align 4, !tbaa !10
  %4 = sext i32 %3 to i64
  %5 = getelementptr inbounds i8, ptr %1, i64 %4
  %.01822 = getelementptr inbounds i8, ptr %5, i64 -1
  %.not23 = icmp ult ptr %.01822, %1
  br i1 %.not23, label %._crit_edge, label %.lr.ph.preheader

.lr.ph.preheader:                                 ; preds = %2
  %6 = getelementptr inbounds nuw i8, ptr %0, i64 10
  %7 = load i16, ptr %6, align 2, !tbaa !11
  %8 = zext i16 %7 to i32
  br label %.lr.ph

.lr.ph:                                           ; preds = %.lr.ph.preheader, %17
  %.01827 = phi ptr [ %.018, %17 ], [ %.01822, %.lr.ph.preheader ]
  %.026 = phi i32 [ %.1, %17 ], [ 3, %.lr.ph.preheader ]
  %.01425 = phi i32 [ %.115, %17 ], [ %8, %.lr.ph.preheader ]
  %.01624 = phi ptr [ %.117, %17 ], [ %6, %.lr.ph.preheader ]
  %9 = urem i32 %.01425, 10
  %10 = trunc nuw nsw i32 %9 to i8
  store i8 %10, ptr %.01827, align 1, !tbaa !19
  %11 = udiv i32 %.01425, 10
  %12 = add nsw i32 %.026, -1
  %.not21 = icmp eq i32 %12, 0
  br i1 %.not21, label %13, label %17

13:                                               ; preds = %.lr.ph
  %14 = getelementptr inbounds nuw i8, ptr %.01624, i64 2
  %15 = load i16, ptr %14, align 2, !tbaa !11
  %16 = zext i16 %15 to i32
  br label %17

17:                                               ; preds = %.lr.ph, %13
  %.117 = phi ptr [ %.01624, %.lr.ph ], [ %14, %13 ]
  %.115 = phi i32 [ %11, %.lr.ph ], [ %16, %13 ]
  %.1 = phi i32 [ %12, %.lr.ph ], [ 3, %13 ]
  %.018 = getelementptr inbounds i8, ptr %.01827, i64 -1
  %.not = icmp ult ptr %.018, %1
  br i1 %.not, label %._crit_edge, label %.lr.ph, !llvm.loop !77

._crit_edge:                                      ; preds = %17, %2
  ret ptr %1
}